target datalayout = "e-m:e-p270:32:32-p271:32:32-p272:64:64-i64:64-i128:128-f80:128-n8:16:32:64-S128"
target triple = "x86_64-pc-linux-gnu"

%class.Type.base = type <{ ptr, ptr, i32 }>
%class.TypePtr = type <{ %class.Type.base, [4 x i8], ptr, i32, i32, i32, [4 x i8] }>

@_ZN7TypePtr8NULL_PTRE = hidden global ptr null, align 8

; Function Attrs: mustprogress nounwind uwtable
define linkonce_odr hidden noundef i32 @_ZNK7TypePtr12inline_depthEv(ptr noundef nonnull align 8 dereferenceable(44) %0) #1 comdat align 2 {
  %2 = alloca ptr, align 8
  store ptr %0, ptr %2, align 8
  %3 = load ptr, ptr %2, align 8
  %4 = getelementptr inbounds %class.TypePtr, ptr %3, i32 0, i32 3
  %5 = load i32, ptr %4, align 8
  ret i32 %5
}

; Function Attrs: mustprogress nounwind uwtable
define hidden noundef zeroext i1 @_ZNK7TypePtr18would_improve_typeEP7ciKlassi(ptr noundef nonnull align 8 dereferenceable(44) %0, ptr noundef %1, i32 noundef %2) unnamed_addr #1 align 2 {
  %4 = alloca i1, align 1
  %5 = alloca ptr, align 8
  %6 = alloca ptr, align 8
  %7 = alloca i32, align 4
  store ptr %0, ptr %5, align 8
  store ptr %1, ptr %6, align 8
  store i32 %2, ptr %7, align 4
  %8 = load ptr, ptr %5, align 8
  %9 = load ptr, ptr %6, align 8
  %10 = icmp eq ptr %9, null
  br i1 %10, label %11, label %12

11:                                               ; preds = %3
  store i1 false, ptr %4, align 1
  br label %39

12:                                               ; preds = %3
  %13 = load ptr, ptr %8, align 8
  %14 = getelementptr inbounds ptr, ptr %13, i64 11
  %15 = load ptr, ptr %14, align 8
  %16 = call noundef ptr %15(ptr noundef nonnull align 8 dereferenceable(44) %8)
  %17 = load ptr, ptr @_ZN7TypePtr8NULL_PTRE, align 8
  %18 = icmp eq ptr %16, %17
  br i1 %18, label %19, label %20

19:                                               ; preds = %12
  store i1 false, ptr %4, align 1
  br label %39

20:                                               ; preds = %12
  %21 = load ptr, ptr %8, align 8
  %22 = getelementptr inbounds ptr, ptr %21, i64 12
  %23 = load ptr, ptr %22, align 8
  %24 = call noundef ptr %23(ptr noundef nonnull align 8 dereferenceable(44) %8)
  %25 = icmp eq ptr %24, null
  br i1 %25, label %26, label %27

26:                                               ; preds = %20
  store i1 true, ptr %4, align 1
  br label %39

27:                                               ; preds = %20
  %28 = getelementptr inbounds %class.TypePtr, ptr %8, i32 0, i32 2
  %29 = load ptr, ptr %28, align 8
  %30 = call noundef i32 @_ZNK7TypePtr12inline_depthEv(ptr noundef nonnull align 8 dereferenceable(44) %29)
  %31 = icmp eq i32 %30, 2147483647
  br i1 %31, label %32, label %33

32:                                               ; preds = %27
  store i1 false, ptr %4, align 1
  br label %39

33:                                               ; preds = %27
  %34 = load i32, ptr %7, align 4
  %35 = getelementptr inbounds %class.TypePtr, ptr %8, i32 0, i32 2
  %36 = load ptr, ptr %35, align 8
  %37 = call noundef i32 @_ZNK7TypePtr12inline_depthEv(ptr noundef nonnull align 8 dereferenceable(44) %36)
  %38 = icmp slt i32 %34, %37
  store i1 %38, ptr %4, align 1
  br label %39

39:                                               ; preds = %33, %32, %26, %19, %11
  %40 = load i1, ptr %4, align 1
  ret i1 %40
}

; Function Attrs: mustprogress nounwind uwtable
define hidden noundef zeroext i1 @_ZNK10TypeOopPtr18would_improve_typeEP7ciKlassi(ptr noundef nonnull align 8 dereferenceable(80) %0, ptr noundef %1, i32 noundef %2) unnamed_addr #1 align 2 {
  %4 = alloca i1, align 1
  %5 = alloca ptr, align 8
  %6 = alloca ptr, align 8
  %7 = alloca i32, align 4
  store ptr %0, ptr %5, align 8
  store ptr %1, ptr %6, align 8
  store i32 %2, ptr %7, align 4
  %8 = load ptr, ptr %5, align 8
  %9 = load ptr, ptr %8, align 8
  %10 = getelementptr inbounds ptr, ptr %9, i64 34
  %11 = load ptr, ptr %10, align 8
  %12 = call noundef zeroext i1 %11(ptr noundef nonnull align 8 dereferenceable(80) %8)
  br i1 %12, label %13, label %14

13:                                               ; preds = %3
  store i1 false, ptr %4, align 1
  br label %18

14:                                               ; preds = %3
  %15 = load ptr, ptr %6, align 8
  %16 = load i32, ptr %7, align 4
  %17 = call noundef zeroext i1 @_ZNK7TypePtr18would_improve_typeEP7ciKlassi(ptr noundef nonnull align 8 dereferenceable(44) %8, ptr noundef %15, i32 noundef %16)
  store i1 %17, ptr %4, align 1
  br label %18

18:                                               ; preds = %14, %13
  %19 = load i1, ptr %4, align 1
  ret i1 %19
}