; Function Attrs: mustprogress nounwind uwtable
define hidden noundef zeroext i1 @_ZNK10TypeOopPtr18would_improve_typeEP7ciKlassi(ptr noundef nonnull align 8 dereferenceable(80) %0, ptr noundef readnone %1, i32 noundef %2) unnamed_addr #0 align 2 {
  %4 = load ptr, ptr %0, align 8
  %5 = getelementptr inbounds i8, ptr %4, i64 272
  %6 = load ptr, ptr %5, align 8
  %7 = tail call noundef zeroext i1 %6(ptr noundef nonnull align 8 dereferenceable(80) %0) #17
  %8 = icmp eq ptr %1, null
  %or.cond = or i1 %8, %7
  br i1 %or.cond, label %_ZNK7TypePtr18would_improve_typeEP7ciKlassi.exit, label %9

9:                                                ; preds = %3
  %10 = load ptr, ptr %0, align 8
  %11 = getelementptr inbounds i8, ptr %10, i64 88
  %12 = load ptr, ptr %11, align 8
  %13 = tail call noundef ptr %12(ptr noundef nonnull align 8 dereferenceable(44) %0) #17
  %14 = load ptr, ptr @_ZN7TypePtr8NULL_PTRE, align 8
  %15 = icmp eq ptr %13, %14
  br i1 %15, label %_ZNK7TypePtr18would_improve_typeEP7ciKlassi.exit, label %16

16:                                               ; preds = %9
  %17 = load ptr, ptr %0, align 8
  %18 = getelementptr inbounds i8, ptr %17, i64 96
  %19 = load ptr, ptr %18, align 8
  %20 = tail call noundef ptr %19(ptr noundef nonnull align 8 dereferenceable(44) %0) #17
  %21 = icmp eq ptr %20, null
  br i1 %21, label %_ZNK7TypePtr18would_improve_typeEP7ciKlassi.exit, label %22

22:                                               ; preds = %16
  %23 = getelementptr inbounds i8, ptr %0, i64 24
  %24 = load ptr, ptr %23, align 8
  %25 = getelementptr inbounds i8, ptr %24, i64 32
  %26 = load i32, ptr %25, align 8
  %27 = icmp ne i32 %26, 2147483647
  %28 = icmp sgt i32 %26, %2
  %spec.select.i = and i1 %27, %28
  br label %_ZNK7TypePtr18would_improve_typeEP7ciKlassi.exit

_ZNK7TypePtr18would_improve_typeEP7ciKlassi.exit: ; preds = %22, %16, %9, %3
  %.0 = phi i1 [ false, %3 ], [ false, %9 ], [ true, %16 ], [ %spec.select.i, %22 ]
  ret i1 %.0
}